target datalayout = "e-m:e-p270:32:32-p271:32:32-p272:64:64-i64:64-i128:128-f80:128-n8:16:32:64-S128"
target triple = "x86_64-pc-linux-gnu"

%struct.ldmRollingHashState_t = type { i64, i64 }

; Function Attrs: nounwind uwtable
define internal i64 @ZSTD_ldm_gear_feed(ptr noundef %0, ptr noundef %1, i64 noundef %2, ptr noundef %3, ptr noundef %4) #0 {
  %6 = alloca ptr, align 8
  %7 = alloca ptr, align 8
  %8 = alloca i64, align 8
  %9 = alloca ptr, align 8
  %10 = alloca ptr, align 8
  %11 = alloca i64, align 8
  %12 = alloca i64, align 8
  %13 = alloca i64, align 8
  store ptr %0, ptr %6, align 8, !tbaa !3
  store ptr %1, ptr %7, align 8, !tbaa !20
  store i64 %2, ptr %8, align 8, !tbaa !17
  store ptr %3, ptr %9, align 8, !tbaa !26
  store ptr %4, ptr %10, align 8, !tbaa !37
  call void @llvm.lifetime.start.p0(i64 8, ptr %11) #12
  call void @llvm.lifetime.start.p0(i64 8, ptr %12) #12
  call void @llvm.lifetime.start.p0(i64 8, ptr %13) #12
  %14 = load ptr, ptr %6, align 8, !tbaa !3
  %15 = getelementptr inbounds nuw %struct.ldmRollingHashState_t, ptr %14, i32 0, i32 0
  %16 = load i64, ptr %15, align 8, !tbaa !34
  store i64 %16, ptr %12, align 8, !tbaa !17
  %17 = load ptr, ptr %6, align 8, !tbaa !3
  %18 = getelementptr inbounds nuw %struct.ldmRollingHashState_t, ptr %17, i32 0, i32 1
  %19 = load i64, ptr %18, align 8, !tbaa !36
  store i64 %19, ptr %13, align 8, !tbaa !17
  store i64 0, ptr %11, align 8, !tbaa !17
  br label %20

20:                                               ; preds = %189, %5
  %21 = load i64, ptr %11, align 8, !tbaa !17
  %22 = add i64 %21, 3
  %23 = load i64, ptr %8, align 8, !tbaa !17
  %24 = icmp ult i64 %22, %23
  br i1 %24, label %25, label %190

25:                                               ; preds = %20
  br label %26

26:                                               ; preds = %25
  %27 = load i64, ptr %12, align 8, !tbaa !17
  %28 = shl i64 %27, 1
  %29 = load ptr, ptr %7, align 8, !tbaa !20
  %30 = load i64, ptr %11, align 8, !tbaa !17
  %31 = getelementptr inbounds nuw i8, ptr %29, i64 %30
  %32 = load i8, ptr %31, align 1, !tbaa !39
  %33 = zext i8 %32 to i32
  %34 = and i32 %33, 255
  %35 = sext i32 %34 to i64
  %36 = getelementptr inbounds [256 x i64], ptr @ZSTD_ldm_gearTab, i64 0, i64 %35
  %37 = load i64, ptr %36, align 8, !tbaa !17
  %38 = add i64 %28, %37
  store i64 %38, ptr %12, align 8, !tbaa !17
  %39 = load i64, ptr %11, align 8, !tbaa !17
  %40 = add i64 %39, 1
  store i64 %40, ptr %11, align 8, !tbaa !17
  %41 = load i64, ptr %12, align 8, !tbaa !17
  %42 = load i64, ptr %13, align 8, !tbaa !17
  %43 = and i64 %41, %42
  %44 = icmp eq i64 %43, 0
  %45 = zext i1 %44 to i32
  %46 = sext i32 %45 to i64
  %47 = call i64 @llvm.expect.i64(i64 %46, i64 0)
  %48 = icmp ne i64 %47, 0
  br i1 %48, label %49, label %64

49:                                               ; preds = %26
  %50 = load i64, ptr %11, align 8, !tbaa !17
  %51 = load ptr, ptr %9, align 8, !tbaa !26
  %52 = load ptr, ptr %10, align 8, !tbaa !37
  %53 = load i32, ptr %52, align 4, !tbaa !22
  %54 = zext i32 %53 to i64
  %55 = getelementptr inbounds nuw i64, ptr %51, i64 %54
  store i64 %50, ptr %55, align 8, !tbaa !17
  %56 = load ptr, ptr %10, align 8, !tbaa !37
  %57 = load i32, ptr %56, align 4, !tbaa !22
  %58 = add i32 %57, 1
  store i32 %58, ptr %56, align 4, !tbaa !22
  %59 = load ptr, ptr %10, align 8, !tbaa !37
  %60 = load i32, ptr %59, align 4, !tbaa !22
  %61 = icmp eq i32 %60, 64
  br i1 %61, label %62, label %63

62:                                               ; preds = %49
  br label %238

63:                                               ; preds = %49
  br label %64

64:                                               ; preds = %63, %26
  br label %65

65:                                               ; preds = %64
  br label %66

66:                                               ; preds = %65
  br label %67

67:                                               ; preds = %66
  %68 = load i64, ptr %12, align 8, !tbaa !17
  %69 = shl i64 %68, 1
  %70 = load ptr, ptr %7, align 8, !tbaa !20
  %71 = load i64, ptr %11, align 8, !tbaa !17
  %72 = getelementptr inbounds nuw i8, ptr %70, i64 %71
  %73 = load i8, ptr %72, align 1, !tbaa !39
  %74 = zext i8 %73 to i32
  %75 = and i32 %74, 255
  %76 = sext i32 %75 to i64
  %77 = getelementptr inbounds [256 x i64], ptr @ZSTD_ldm_gearTab, i64 0, i64 %76
  %78 = load i64, ptr %77, align 8, !tbaa !17
  %79 = add i64 %69, %78
  store i64 %79, ptr %12, align 8, !tbaa !17
  %80 = load i64, ptr %11, align 8, !tbaa !17
  %81 = add i64 %80, 1
  store i64 %81, ptr %11, align 8, !tbaa !17
  %82 = load i64, ptr %12, align 8, !tbaa !17
  %83 = load i64, ptr %13, align 8, !tbaa !17
  %84 = and i64 %82, %83
  %85 = icmp eq i64 %84, 0
  %86 = zext i1 %85 to i32
  %87 = sext i32 %86 to i64
  %88 = call i64 @llvm.expect.i64(i64 %87, i64 0)
  %89 = icmp ne i64 %88, 0
  br i1 %89, label %90, label %105

90:                                               ; preds = %67
  %91 = load i64, ptr %11, align 8, !tbaa !17
  %92 = load ptr, ptr %9, align 8, !tbaa !26
  %93 = load ptr, ptr %10, align 8, !tbaa !37
  %94 = load i32, ptr %93, align 4, !tbaa !22
  %95 = zext i32 %94 to i64
  %96 = getelementptr inbounds nuw i64, ptr %92, i64 %95
  store i64 %91, ptr %96, align 8, !tbaa !17
  %97 = load ptr, ptr %10, align 8, !tbaa !37
  %98 = load i32, ptr %97, align 4, !tbaa !22
  %99 = add i32 %98, 1
  store i32 %99, ptr %97, align 4, !tbaa !22
  %100 = load ptr, ptr %10, align 8, !tbaa !37
  %101 = load i32, ptr %100, align 4, !tbaa !22
  %102 = icmp eq i32 %101, 64
  br i1 %102, label %103, label %104

103:                                              ; preds = %90
  br label %238

104:                                              ; preds = %90
  br label %105

105:                                              ; preds = %104, %67
  br label %106

106:                                              ; preds = %105
  br label %107

107:                                              ; preds = %106
  br label %108

108:                                              ; preds = %107
  %109 = load i64, ptr %12, align 8, !tbaa !17
  %110 = shl i64 %109, 1
  %111 = load ptr, ptr %7, align 8, !tbaa !20
  %112 = load i64, ptr %11, align 8, !tbaa !17
  %113 = getelementptr inbounds nuw i8, ptr %111, i64 %112
  %114 = load i8, ptr %113, align 1, !tbaa !39
  %115 = zext i8 %114 to i32
  %116 = and i32 %115, 255
  %117 = sext i32 %116 to i64
  %118 = getelementptr inbounds [256 x i64], ptr @ZSTD_ldm_gearTab, i64 0, i64 %117
  %119 = load i64, ptr %118, align 8, !tbaa !17
  %120 = add i64 %110, %119
  store i64 %120, ptr %12, align 8, !tbaa !17
  %121 = load i64, ptr %11, align 8, !tbaa !17
  %122 = add i64 %121, 1
  store i64 %122, ptr %11, align 8, !tbaa !17
  %123 = load i64, ptr %12, align 8, !tbaa !17
  %124 = load i64, ptr %13, align 8, !tbaa !17
  %125 = and i64 %123, %124
  %126 = icmp eq i64 %125, 0
  %127 = zext i1 %126 to i32
  %128 = sext i32 %127 to i64
  %129 = call i64 @llvm.expect.i64(i64 %128, i64 0)
  %130 = icmp ne i64 %129, 0
  br i1 %130, label %131, label %146

131:                                              ; preds = %108
  %132 = load i64, ptr %11, align 8, !tbaa !17
  %133 = load ptr, ptr %9, align 8, !tbaa !26
  %134 = load ptr, ptr %10, align 8, !tbaa !37
  %135 = load i32, ptr %134, align 4, !tbaa !22
  %136 = zext i32 %135 to i64
  %137 = getelementptr inbounds nuw i64, ptr %133, i64 %136
  store i64 %132, ptr %137, align 8, !tbaa !17
  %138 = load ptr, ptr %10, align 8, !tbaa !37
  %139 = load i32, ptr %138, align 4, !tbaa !22
  %140 = add i32 %139, 1
  store i32 %140, ptr %138, align 4, !tbaa !22
  %141 = load ptr, ptr %10, align 8, !tbaa !37
  %142 = load i32, ptr %141, align 4, !tbaa !22
  %143 = icmp eq i32 %142, 64
  br i1 %143, label %144, label %145

144:                                              ; preds = %131
  br label %238

145:                                              ; preds = %131
  br label %146

146:                                              ; preds = %145, %108
  br label %147

147:                                              ; preds = %146
  br label %148

148:                                              ; preds = %147
  br label %149

149:                                              ; preds = %148
  %150 = load i64, ptr %12, align 8, !tbaa !17
  %151 = shl i64 %150, 1
  %152 = load ptr, ptr %7, align 8, !tbaa !20
  %153 = load i64, ptr %11, align 8, !tbaa !17
  %154 = getelementptr inbounds nuw i8, ptr %152, i64 %153
  %155 = load i8, ptr %154, align 1, !tbaa !39
  %156 = zext i8 %155 to i32
  %157 = and i32 %156, 255
  %158 = sext i32 %157 to i64
  %159 = getelementptr inbounds [256 x i64], ptr @ZSTD_ldm_gearTab, i64 0, i64 %158
  %160 = load i64, ptr %159, align 8, !tbaa !17
  %161 = add i64 %151, %160
  store i64 %161, ptr %12, align 8, !tbaa !17
  %162 = load i64, ptr %11, align 8, !tbaa !17
  %163 = add i64 %162, 1
  store i64 %163, ptr %11, align 8, !tbaa !17
  %164 = load i64, ptr %12, align 8, !tbaa !17
  %165 = load i64, ptr %13, align 8, !tbaa !17
  %166 = and i64 %164, %165
  %167 = icmp eq i64 %166, 0
  %168 = zext i1 %167 to i32
  %169 = sext i32 %168 to i64
  %170 = call i64 @llvm.expect.i64(i64 %169, i64 0)
  %171 = icmp ne i64 %170, 0
  br i1 %171, label %172, label %187

172:                                              ; preds = %149
  %173 = load i64, ptr %11, align 8, !tbaa !17
  %174 = load ptr, ptr %9, align 8, !tbaa !26
  %175 = load ptr, ptr %10, align 8, !tbaa !37
  %176 = load i32, ptr %175, align 4, !tbaa !22
  %177 = zext i32 %176 to i64
  %178 = getelementptr inbounds nuw i64, ptr %174, i64 %177
  store i64 %173, ptr %178, align 8, !tbaa !17
  %179 = load ptr, ptr %10, align 8, !tbaa !37
  %180 = load i32, ptr %179, align 4, !tbaa !22
  %181 = add i32 %180, 1
  store i32 %181, ptr %179, align 4, !tbaa !22
  %182 = load ptr, ptr %10, align 8, !tbaa !37
  %183 = load i32, ptr %182, align 4, !tbaa !22
  %184 = icmp eq i32 %183, 64
  br i1 %184, label %185, label %186

185:                                              ; preds = %172
  br label %238

186:                                              ; preds = %172
  br label %187

187:                                              ; preds = %186, %149
  br label %188

188:                                              ; preds = %187
  br label %189

189:                                              ; preds = %188
  br label %20, !llvm.loop !40

190:                                              ; preds = %20
  br label %191

191:                                              ; preds = %236, %190
  %192 = load i64, ptr %11, align 8, !tbaa !17
  %193 = load i64, ptr %8, align 8, !tbaa !17
  %194 = icmp ult i64 %192, %193
  br i1 %194, label %195, label %237

195:                                              ; preds = %191
  br label %196

196:                                              ; preds = %195
  %197 = load i64, ptr %12, align 8, !tbaa !17
  %198 = shl i64 %197, 1
  %199 = load ptr, ptr %7, align 8, !tbaa !20
  %200 = load i64, ptr %11, align 8, !tbaa !17
  %201 = getelementptr inbounds nuw i8, ptr %199, i64 %200
  %202 = load i8, ptr %201, align 1, !tbaa !39
  %203 = zext i8 %202 to i32
  %204 = and i32 %203, 255
  %205 = sext i32 %204 to i64
  %206 = getelementptr inbounds [256 x i64], ptr @ZSTD_ldm_gearTab, i64 0, i64 %205
  %207 = load i64, ptr %206, align 8, !tbaa !17
  %208 = add i64 %198, %207
  store i64 %208, ptr %12, align 8, !tbaa !17
  %209 = load i64, ptr %11, align 8, !tbaa !17
  %210 = add i64 %209, 1
  store i64 %210, ptr %11, align 8, !tbaa !17
  %211 = load i64, ptr %12, align 8, !tbaa !17
  %212 = load i64, ptr %13, align 8, !tbaa !17
  %213 = and i64 %211, %212
  %214 = icmp eq i64 %213, 0
  %215 = zext i1 %214 to i32
  %216 = sext i32 %215 to i64
  %217 = call i64 @llvm.expect.i64(i64 %216, i64 0)
  %218 = icmp ne i64 %217, 0
  br i1 %218, label %219, label %234

219:                                              ; preds = %196
  %220 = load i64, ptr %11, align 8, !tbaa !17
  %221 = load ptr, ptr %9, align 8, !tbaa !26
  %222 = load ptr, ptr %10, align 8, !tbaa !37
  %223 = load i32, ptr %222, align 4, !tbaa !22
  %224 = zext i32 %223 to i64
  %225 = getelementptr inbounds nuw i64, ptr %221, i64 %224
  store i64 %220, ptr %225, align 8, !tbaa !17
  %226 = load ptr, ptr %10, align 8, !tbaa !37
  %227 = load i32, ptr %226, align 4, !tbaa !22
  %228 = add i32 %227, 1
  store i32 %228, ptr %226, align 4, !tbaa !22
  %229 = load ptr, ptr %10, align 8, !tbaa !37
  %230 = load i32, ptr %229, align 4, !tbaa !22
  %231 = icmp eq i32 %230, 64
  br i1 %231, label %232, label %233

232:                                              ; preds = %219
  br label %238

233:                                              ; preds = %219
  br label %234

234:                                              ; preds = %233, %196
  br label %235

235:                                              ; preds = %234
  br label %236

236:                                              ; preds = %235
  br label %191, !llvm.loop !41

237:                                              ; preds = %191
  br label %238

238:                                              ; preds = %237, %232, %185, %144, %103, %62
  %239 = load i64, ptr %12, align 8, !tbaa !17
  %240 = load ptr, ptr %6, align 8, !tbaa !3
  %241 = getelementptr inbounds nuw %struct.ldmRollingHashState_t, ptr %240, i32 0, i32 0
  store i64 %239, ptr %241, align 8, !tbaa !34
  %242 = load i64, ptr %11, align 8, !tbaa !17
  call void @llvm.lifetime.end.p0(i64 8, ptr %13) #12
  call void @llvm.lifetime.end.p0(i64 8, ptr %12) #12
  call void @llvm.lifetime.end.p0(i64 8, ptr %11) #12
  ret i64 %242
}